-----BEGIN CERTIFICATE-----
MIID9DCCAtygAwIBAgIBATANBgkqhkiG9w0BAQsFADCBhTEhMB8GA1UEAxMYd2hp
c3RsZS4xNTkyNjUxMzA3OTQ1OTEwMQswCQYDVQQGEwJDTjELMAkGA1UECBMCWkox
CzAJBgNVBAcTAkhaMSQwIgYDVQQKExsxNTkyNjUxMzA3OTQ1OTEwLndwcm94eS5v
cmcxEzARBgNVBAsTCndwcm94eS5vcmcwHhcNMTkwNjIwMTEwODI3WhcNMzAwNjIw
MTEwODI3WjCBhTEhMB8GA1UEAxMYd2hpc3RsZS4xNTkyNjUxMzA3OTQ1OTEwMQsw
CQYDVQQGEwJDTjELMAkGA1UECBMCWkoxCzAJBgNVBAcTAkhaMSQwIgYDVQQKExsx
NTkyNjUxMzA3OTQ1OTEwLndwcm94eS5vcmcxEzARBgNVBAsTCndwcm94eS5vcmcw
ggEiMA0GCSqGSIb3DQEBAQUAA4IBDwAwggEKAoIBAQC3OpnSncG7ekL1OkeZZyii
fdCkSpPBJ7CYCwHs6LDMsp0XaEphNpxQGHo6hnNIR1zJjQ2OtX+NShkurFP1kFky
hu7ZkS9FZQmvuApWMX5rTCy24eKT9soj4UTYAbAI3s5gRyXzqBu0PYwO6YMC6uAp
HQOgnAe/vi8buIh+f8UWxktbB1umCZcyFBVm3P39kbeqi+icJwp6GySLQix6wdDZ
HIkDfWRKNA2DRSakTVVbwno39uJ8FNgukpWhxUAyvuVcA/8V317o+mQsUGKlh5hC
e7+9QvnDR9blYeYZRpc8X54h1SE5ZDrnyZYcbFIVXeNr0/sLbPNqn3R5o6weOdY1
AgMBAAGjbTBrMAwGA1UdEwQFMAMBAf8wCwYDVR0PBAQDAgL0MDsGA1UdJQQ0MDIG
CCsGAQUFBwMBBggrBgEFBQcDAgYIKwYBBQUHAwMGCCsGAQUFBwMEBggrBgEFBQcD
CDARBglghkgBhvhCAQEEBAMCAPcwDQYJKoZIhvcNAQELBQADggEBAB4ac5O2ZSG7
ZnMMciiBvlNHSE6hYQQxgBI5QORRif1PV1EXYPU0gi88PM+PqZJXrYEYr4MlQt3z
0U5ndKFCPOXi3Rt3J0dLZ1X1qZTCrgg4Rg17k9W/9pmh7oNy2UWKo2/5sGi64Smj
LGjBRkX9ELNQDDAIa1gGMkemC4/3gfxdmb56s31htt8BIXwNCnFlKnYSoCZjkoAB
6Dmo/n1zPfMdp1Zqx7GFlVJcES5nPqYldNgGu2KCnGscje8VsH4zCu5cYoD2GnSQ
PGvDyubYYrvPLsojklTIUGNKKhgqfxs/Jai7CCtIRiNhO4H69X4htxyRsqYW+XIH
nO1LPDbX/S0=
-----END CERTIFICATE-----
Certificate:
    Data:
        Version: 3 (0x2)
        Serial Number: 1 (0x1)
    Signature Algorithm: sha256WithRSAEncryption
        Issuer: CN=whistle.1592651307945910, C=CN, ST=ZJ, L=HZ, O=1592651307945910.wproxy.org, OU=wproxy.org
        Validity
            Not Before: Jun 20 11:08:27 2019 GMT
            Not After : Jun 20 11:08:27 2030 GMT
        Subject: CN=whistle.1592651307945910, C=CN, ST=ZJ, L=HZ, O=1592651307945910.wproxy.org, OU=wproxy.org
        Subject Public Key Info:
            Public Key Algorithm: rsaEncryption
                Public-Key: (2048 bit)
                Modulus:
                    00:b7:3a:99:d2:9d:c1:bb:7a:42:f5:3a:47:99:67:
                    28:a2:7d:d0:a4:4a:93:c1:27:b0:98:0b:01:ec:e8:
                    b0:cc:b2:9d:17:68:4a:61:36:9c:50:18:7a:3a:86:
                    73:48:47:5c:c9:8d:0d:8e:b5:7f:8d:4a:19:2e:ac:
                    53:f5:90:59:32:86:ee:d9:91:2f:45:65:09:af:b8:
                    0a:56:31:7e:6b:4c:2c:b6:e1:e2:93:f6:ca:23:e1:
                    44:d8:01:b0:08:de:ce:60:47:25:f3:a8:1b:b4:3d:
                    8c:0e:e9:83:02:ea:e0:29:1d:03:a0:9c:07:bf:be:
                    2f:1b:b8:88:7e:7f:c5:16:c6:4b:5b:07:5b:a6:09:
                    97:32:14:15:66:dc:fd:fd:91:b7:aa:8b:e8:9c:27:
                    0a:7a:1b:24:8b:42:2c:7a:c1:d0:d9:1c:89:03:7d:
                    64:4a:34:0d:83:45:26:a4:4d:55:5b:c2:7a:37:f6:
                    e2:7c:14:d8:2e:92:95:a1:c5:40:32:be:e5:5c:03:
                    ff:15:df:5e:e8:fa:64:2c:50:62:a5:87:98:42:7b:
                    bf:bd:42:f9:c3:47:d6:e5:61:e6:19:46:97:3c:5f:
                    9e:21:d5:21:39:64:3a:e7:c9:96:1c:6c:52:15:5d:
                    e3:6b:d3:fb:0b:6c:f3:6a:9f:74:79:a3:ac:1e:39:
                    d6:35
                Exponent: 65537 (0x10001)
        X509v3 extensions:
            X509v3 Basic Constraints: 
                CA:TRUE
            X509v3 Key Usage: 
                Digital Signature, Non Repudiation, Key Encipherment, Data Encipherment, Certificate Sign
            X509v3 Extended Key Usage: 
                TLS Web Server Authentication, TLS Web Client Authentication, Code Signing, E-mail Protection, Time Stamping
            Netscape Cert Type: 
                SSL Client, SSL Server, S/MIME, Object Signing, SSL CA, S/MIME CA, Object Signing CA
    Signature Algorithm: sha256WithRSAEncryption
         1e:1a:73:93:b6:65:21:bb:66:73:0c:72:28:81:be:53:47:48:
         4e:a1:61:04:31:80:12:39:40:e4:51:89:fd:4f:57:51:17:60:
         f5:34:82:2f:3c:3c:cf:8f:a9:92:57:ad:81:18:af:83:25:42:
         dd:f3:d1:4e:67:74:a1:42:3c:e5:e2:dd:1b:77:27:47:4b:67:
         55:f5:a9:94:c2:ae:08:38:46:0d:7b:93:d5:bf:f6:99:a1:ee:
         83:72:d9:45:8a:a3:6f:f9:b0:68:ba:e1:29:a3:2c:68:c1:46:
         45:fd:10:b3:50:0c:30:08:6b:58:06:32:47:a6:0b:8f:f7:81:
         fc:5d:99:be:7a:b3:7d:61:b6:df:01:21:7c:0d:0a:71:65:2a:
         76:12:a0:26:63:92:80:01:e8:39:a8:fe:7d:73:3d:f3:1d:a7:
         56:6a:c7:b1:85:95:52:5c:11:2e:67:3e:a6:25:74:d8:06:bb:
         62:82:9c:6b:1c:8d:ef:15:b0:7e:33:0a:ee:5c:62:80:f6:1a:
         74:90:3c:6b:c3:ca:e6:d8:62:bb:cf:2e:ca:23:92:54:c8:50:
         63:4a:2a:18:2a:7f:1b:3f:25:a8:bb:08:2b:48:46:23:61:3b:
         81:fa:f5:7e:21:b7:1c:91:b2:a6:16:f9:72:07:9c:ed:4b:3c:
         36:d7:fd:2d
